; ModuleID = '20/608.c'
source_filename = "20/608.c"
target datalayout = "e-m:e-p270:32:32-p271:32:32-p272:64:64-i64:64-f80:128-n8:16:32:64-S128"
target triple = "x86_64-pc-linux-gnu"

@.str = private unnamed_addr constant [5 x i8] c"%s%s\00", align 1
@.str.1 = private unnamed_addr constant [4 x i8] c"%s\0A\00", align 1

; Function Attrs: noinline nounwind uwtable
define dso_local i32 @main() #0 {
  %1 = alloca i32, align 4
  %2 = alloca i32, align 4
  %3 = alloca i32, align 4
  %4 = alloca i32, align 4
  %5 = alloca [20 x i8], align 16
  %6 = alloca [20 x i8], align 16
  %7 = alloca [20 x i32], align 16
  store i32 0, i32* %1, align 4
  br label %8

8:                                                ; preds = %40, %0
  %9 = getelementptr inbounds [20 x i8], [20 x i8]* %5, i64 0, i64 0
  %10 = getelementptr inbounds [20 x i8], [20 x i8]* %6, i64 0, i64 0
  %11 = call i32 (i8*, ...) @__isoc99_scanf(i8* getelementptr inbounds ([5 x i8], [5 x i8]* @.str, i64 0, i64 0), i8* %9, i8* %10)
  %12 = icmp ne i32 %11, -1
  br i1 %12, label %13, label %62

13:                                               ; preds = %8
  %14 = bitcast [20 x i32]* %7 to i8*
  call void @llvm.memset.p0i8.i64(i8* align 16 %14, i8 0, i64 80, i1 false)
  store i32 0, i32* %2, align 4
  store i32 1, i32* %3, align 4
  br label %15

15:                                               ; preds = %37, %13
  %16 = load i32, i32* %3, align 4
  %17 = sext i32 %16 to i64
  %18 = getelementptr inbounds [20 x i8], [20 x i8]* %5, i64 0, i64 %17
  %19 = load i8, i8* %18, align 1
  %20 = icmp ne i8 %19, 0
  br i1 %20, label %21, label %40

21:                                               ; preds = %15
  %22 = load i32, i32* %3, align 4
  %23 = sext i32 %22 to i64
  %24 = getelementptr inbounds [20 x i8], [20 x i8]* %5, i64 0, i64 %23
  %25 = load i8, i8* %24, align 1
  %26 = sext i8 %25 to i32
  %27 = load i32, i32* %2, align 4
  %28 = icmp sgt i32 %26, %27
  br i1 %28, label %29, label %36

29:                                               ; preds = %21
  %30 = load i32, i32* %3, align 4
  %31 = sext i32 %30 to i64
  %32 = getelementptr inbounds [20 x i8], [20 x i8]* %5, i64 0, i64 %31
  %33 = load i8, i8* %32, align 1
  %34 = sext i8 %33 to i32
  store i32 %34, i32* %2, align 4
  %35 = load i32, i32* %3, align 4
  store i32 %35, i32* %4, align 4
  br label %36

36:                                               ; preds = %29, %21
  br label %37

37:                                               ; preds = %36
  %38 = load i32, i32* %3, align 4
  %39 = add nsw i32 %38, 1
  store i32 %39, i32* %3, align 4
  br label %15

40:                                               ; preds = %15
  %41 = getelementptr inbounds [20 x i32], [20 x i32]* %7, i64 0, i64 0
  %42 = bitcast i32* %41 to i8*
  %43 = getelementptr inbounds [20 x i8], [20 x i8]* %5, i64 0, i64 0
  %44 = load i32, i32* %4, align 4
  %45 = add nsw i32 %44, 1
  %46 = sext i32 %45 to i64
  %47 = call i8* @strncat(i8* %42, i8* %43, i64 %46) #4
  %48 = getelementptr inbounds [20 x i32], [20 x i32]* %7, i64 0, i64 0
  %49 = bitcast i32* %48 to i8*
  %50 = getelementptr inbounds [20 x i8], [20 x i8]* %6, i64 0, i64 0
  %51 = call i8* @strcat(i8* %49, i8* %50) #4
  %52 = getelementptr inbounds [20 x i32], [20 x i32]* %7, i64 0, i64 0
  %53 = bitcast i32* %52 to i8*
  %54 = getelementptr inbounds [20 x i8], [20 x i8]* %5, i64 0, i64 0
  %55 = load i32, i32* %4, align 4
  %56 = sext i32 %55 to i64
  %57 = getelementptr inbounds i8, i8* %54, i64 %56
  %58 = getelementptr inbounds i8, i8* %57, i64 1
  %59 = call i8* @strcat(i8* %53, i8* %58) #4
  %60 = getelementptr inbounds [20 x i32], [20 x i32]* %7, i64 0, i64 0
  %61 = call i32 (i8*, ...) @printf(i8* getelementptr inbounds ([4 x i8], [4 x i8]* @.str.1, i64 0, i64 0), i32* %60)
  br label %8

62:                                               ; preds = %8
  ret i32 0
}

declare dso_local i32 @__isoc99_scanf(i8*, ...) #1

; Function Attrs: argmemonly nounwind willreturn
declare void @llvm.memset.p0i8.i64(i8* nocapture writeonly, i8, i64, i1 immarg) #2

; Function Attrs: nounwind
declare dso_local i8* @strncat(i8*, i8*, i64) #3

; Function Attrs: nounwind
declare dso_local i8* @strcat(i8*, i8*) #3

declare dso_local i32 @printf(i8*, ...) #1


!llvm.module.flags = !{!0}
!llvm.ident = !{!1}

!0 = !{i32 1, !"wchar_size", i32 4}
!1 = !{!"clang version 10.0.0-4ubuntu1 "}
